target datalayout = "e-m:e-p270:32:32-p271:32:32-p272:64:64-i64:64-i128:128-f80:128-n8:16:32:64-S128"
target triple = "x86_64-pc-linux-gnu"

%struct.PJconsts = type { ptr, ptr, ptr, ptr, ptr, ptr, ptr, ptr, ptr, ptr, ptr, ptr, i32, ptr, ptr, ptr, ptr, ptr, ptr, ptr, ptr, double, double, double, double, double, double, double, double, double, double, double, double, double, double, double, double, double, double, double, double, double, double, i32, i32, i32, i32, i32, i32, i32, i32, i32, i32, i32, ptr, ptr, ptr, ptr, ptr, ptr, double, double, double, double, double, double, double, double, double, double, double, i32, [7 x double], i32, ptr, ptr, double, double, i32, [4 x i8], %"class.std::shared_ptr", i8, double, i8, %"class.std::__cxx11::basic_string", %"class.std::__cxx11::basic_string", %"class.std::__cxx11::basic_string", i8, %"class.std::vector", i32, %"class.std::vector.3", i32, i8, i8, i8, ptr }
%"class.std::shared_ptr" = type { %"class.std::__shared_ptr" }
%"class.std::__shared_ptr" = type { ptr, %"class.std::__shared_count" }
%"class.std::__shared_count" = type { ptr }
%"class.std::__cxx11::basic_string" = type { %"struct.std::__cxx11::basic_string<char>::_Alloc_hider", i64, %union.anon }
%"struct.std::__cxx11::basic_string<char>::_Alloc_hider" = type { ptr }
%union.anon = type { i64, [8 x i8] }
%"class.std::vector" = type { %"struct.std::_Vector_base" }
%"struct.std::_Vector_base" = type { %"struct.std::_Vector_base<osgeo::proj::operation::GridDescription, std::allocator<osgeo::proj::operation::GridDescription>>::_Vector_impl" }
%"struct.std::_Vector_base<osgeo::proj::operation::GridDescription, std::allocator<osgeo::proj::operation::GridDescription>>::_Vector_impl" = type { %"struct.std::_Vector_base<osgeo::proj::operation::GridDescription, std::allocator<osgeo::proj::operation::GridDescription>>::_Vector_impl_data" }
%"struct.std::_Vector_base<osgeo::proj::operation::GridDescription, std::allocator<osgeo::proj::operation::GridDescription>>::_Vector_impl_data" = type { ptr, ptr, ptr }
%"class.std::vector.3" = type { %"struct.std::_Vector_base.4" }
%"struct.std::_Vector_base.4" = type { %"struct.std::_Vector_base<PJCoordOperation, std::allocator<PJCoordOperation>>::_Vector_impl" }
%"struct.std::_Vector_base<PJCoordOperation, std::allocator<PJCoordOperation>>::_Vector_impl" = type { %"struct.std::_Vector_base<PJCoordOperation, std::allocator<PJCoordOperation>>::_Vector_impl_data" }
%"struct.std::_Vector_base<PJCoordOperation, std::allocator<PJCoordOperation>>::_Vector_impl_data" = type { ptr, ptr, ptr }
%"struct.(anonymous namespace)::pj_omerc_data" = type { double, double, double, double, double, double, double, double, double, double, double, double, double, double, i32 }
%struct.PJ_LP = type { double, double }
%struct.PJ_XY = type { double, double }
%union.PJ_COORD = type { [4 x double] }

; Function Attrs: mustprogress uwtable
define internal { double, double } @_ZL15omerc_e_inverse5PJ_XYP8PJconsts(double %0, double %1, ptr noundef %2) #0 {
  %4 = alloca %struct.PJ_LP, align 8
  %5 = alloca %struct.PJ_XY, align 8
  %6 = alloca ptr, align 8
  %7 = alloca %struct.PJ_LP, align 8
  %8 = alloca ptr, align 8
  %9 = alloca double, align 8
  %10 = alloca double, align 8
  %11 = alloca double, align 8
  %12 = alloca double, align 8
  %13 = alloca double, align 8
  %14 = alloca double, align 8
  %15 = alloca double, align 8
  %16 = alloca %union.PJ_COORD, align 8
  %17 = alloca i32, align 4
  %18 = getelementptr inbounds nuw { double, double }, ptr %5, i32 0, i32 0
  store double %0, ptr %18, align 8
  %19 = getelementptr inbounds nuw { double, double }, ptr %5, i32 0, i32 1
  store double %1, ptr %19, align 8
  store ptr %2, ptr %6, align 8, !tbaa !3
  call void @llvm.lifetime.start.p0(i64 16, ptr %7) #16
  call void @llvm.memset.p0.i64(ptr align 8 %7, i8 0, i64 16, i1 false)
  call void @llvm.lifetime.start.p0(i64 8, ptr %8) #16
  %20 = load ptr, ptr %6, align 8, !tbaa !3
  %21 = getelementptr inbounds nuw %struct.PJconsts, ptr %20, i32 0, i32 11
  %22 = load ptr, ptr %21, align 8, !tbaa !45
  store ptr %22, ptr %8, align 8, !tbaa !43
  call void @llvm.lifetime.start.p0(i64 8, ptr %9) #16
  call void @llvm.lifetime.start.p0(i64 8, ptr %10) #16
  call void @llvm.lifetime.start.p0(i64 8, ptr %11) #16
  call void @llvm.lifetime.start.p0(i64 8, ptr %12) #16
  call void @llvm.lifetime.start.p0(i64 8, ptr %13) #16
  call void @llvm.lifetime.start.p0(i64 8, ptr %14) #16
  call void @llvm.lifetime.start.p0(i64 8, ptr %15) #16
  %23 = load ptr, ptr %8, align 8, !tbaa !43
  %24 = getelementptr inbounds nuw %"struct.(anonymous namespace)::pj_omerc_data", ptr %23, i32 0, i32 14
  %25 = load i32, ptr %24, align 8, !tbaa !49
  %26 = icmp ne i32 %25, 0
  br i1 %26, label %27, label %32

27:                                               ; preds = %3
  %28 = getelementptr inbounds nuw %struct.PJ_XY, ptr %5, i32 0, i32 1
  %29 = load double, ptr %28, align 8, !tbaa !76
  store double %29, ptr %10, align 8, !tbaa !41
  %30 = getelementptr inbounds nuw %struct.PJ_XY, ptr %5, i32 0, i32 0
  %31 = load double, ptr %30, align 8, !tbaa !78
  store double %31, ptr %9, align 8, !tbaa !41
  br label %62

32:                                               ; preds = %3
  %33 = getelementptr inbounds nuw %struct.PJ_XY, ptr %5, i32 0, i32 0
  %34 = load double, ptr %33, align 8, !tbaa !78
  %35 = load ptr, ptr %8, align 8, !tbaa !43
  %36 = getelementptr inbounds nuw %"struct.(anonymous namespace)::pj_omerc_data", ptr %35, i32 0, i32 10
  %37 = load double, ptr %36, align 8, !tbaa !63
  %38 = getelementptr inbounds nuw %struct.PJ_XY, ptr %5, i32 0, i32 1
  %39 = load double, ptr %38, align 8, !tbaa !76
  %40 = load ptr, ptr %8, align 8, !tbaa !43
  %41 = getelementptr inbounds nuw %"struct.(anonymous namespace)::pj_omerc_data", ptr %40, i32 0, i32 9
  %42 = load double, ptr %41, align 8, !tbaa !62
  %43 = fmul double %39, %42
  %44 = fneg double %43
  %45 = call double @llvm.fmuladd.f64(double %34, double %37, double %44)
  store double %45, ptr %10, align 8, !tbaa !41
  %46 = getelementptr inbounds nuw %struct.PJ_XY, ptr %5, i32 0, i32 1
  %47 = load double, ptr %46, align 8, !tbaa !76
  %48 = load ptr, ptr %8, align 8, !tbaa !43
  %49 = getelementptr inbounds nuw %"struct.(anonymous namespace)::pj_omerc_data", ptr %48, i32 0, i32 10
  %50 = load double, ptr %49, align 8, !tbaa !63
  %51 = getelementptr inbounds nuw %struct.PJ_XY, ptr %5, i32 0, i32 0
  %52 = load double, ptr %51, align 8, !tbaa !78
  %53 = load ptr, ptr %8, align 8, !tbaa !43
  %54 = getelementptr inbounds nuw %"struct.(anonymous namespace)::pj_omerc_data", ptr %53, i32 0, i32 9
  %55 = load double, ptr %54, align 8, !tbaa !62
  %56 = fmul double %52, %55
  %57 = call double @llvm.fmuladd.f64(double %47, double %50, double %56)
  %58 = load ptr, ptr %8, align 8, !tbaa !43
  %59 = getelementptr inbounds nuw %"struct.(anonymous namespace)::pj_omerc_data", ptr %58, i32 0, i32 13
  %60 = load double, ptr %59, align 8, !tbaa !68
  %61 = fadd double %57, %60
  store double %61, ptr %9, align 8, !tbaa !41
  br label %62

62:                                               ; preds = %32, %27
  %63 = load ptr, ptr %8, align 8, !tbaa !43
  %64 = getelementptr inbounds nuw %"struct.(anonymous namespace)::pj_omerc_data", ptr %63, i32 0, i32 5
  %65 = load double, ptr %64, align 8, !tbaa !66
  %66 = fneg double %65
  %67 = load double, ptr %10, align 8, !tbaa !41
  %68 = fmul double %66, %67
  %69 = call double @exp(double noundef %68) #16, !tbaa !42
  store double %69, ptr %11, align 8, !tbaa !41
  %70 = load double, ptr %11, align 8, !tbaa !41
  %71 = fcmp oeq double %70, 0.000000e+00
  br i1 %71, label %72, label %75

72:                                               ; preds = %62
  %73 = load ptr, ptr %6, align 8, !tbaa !3
  %74 = call i32 @proj_errno_set(ptr noundef %73, i32 noundef 2050)
  call void @llvm.lifetime.start.p0(i64 32, ptr %16) #16
  call void @_Z16proj_coord_errorv(ptr dead_on_unwind writable sret(%union.PJ_COORD) align 8 %16)
  call void @llvm.memcpy.p0.p0.i64(ptr align 8 %4, ptr align 8 %16, i64 16, i1 false), !tbaa.struct !79
  call void @llvm.lifetime.end.p0(i64 32, ptr %16) #16
  store i32 1, ptr %17, align 4
  br label %172

75:                                               ; preds = %62
  %76 = load double, ptr %11, align 8, !tbaa !41
  %77 = load double, ptr %11, align 8, !tbaa !41
  %78 = fdiv double 1.000000e+00, %77
  %79 = fsub double %76, %78
  %80 = fmul double 5.000000e-01, %79
  store double %80, ptr %12, align 8, !tbaa !41
  %81 = load double, ptr %11, align 8, !tbaa !41
  %82 = load double, ptr %11, align 8, !tbaa !41
  %83 = fdiv double 1.000000e+00, %82
  %84 = fadd double %81, %83
  %85 = fmul double 5.000000e-01, %84
  store double %85, ptr %13, align 8, !tbaa !41
  %86 = load ptr, ptr %8, align 8, !tbaa !43
  %87 = getelementptr inbounds nuw %"struct.(anonymous namespace)::pj_omerc_data", ptr %86, i32 0, i32 5
  %88 = load double, ptr %87, align 8, !tbaa !66
  %89 = load double, ptr %9, align 8, !tbaa !41
  %90 = fmul double %88, %89
  %91 = call double @sin(double noundef %90) #16, !tbaa !42
  store double %91, ptr %14, align 8, !tbaa !41
  %92 = load double, ptr %14, align 8, !tbaa !41
  %93 = load ptr, ptr %8, align 8, !tbaa !43
  %94 = getelementptr inbounds nuw %"struct.(anonymous namespace)::pj_omerc_data", ptr %93, i32 0, i32 8
  %95 = load double, ptr %94, align 8, !tbaa !61
  %96 = load double, ptr %12, align 8, !tbaa !41
  %97 = load ptr, ptr %8, align 8, !tbaa !43
  %98 = getelementptr inbounds nuw %"struct.(anonymous namespace)::pj_omerc_data", ptr %97, i32 0, i32 7
  %99 = load double, ptr %98, align 8, !tbaa !60
  %100 = fmul double %96, %99
  %101 = call double @llvm.fmuladd.f64(double %92, double %95, double %100)
  %102 = load double, ptr %13, align 8, !tbaa !41
  %103 = fdiv double %101, %102
  store double %103, ptr %15, align 8, !tbaa !41
  %104 = load double, ptr %15, align 8, !tbaa !41
  %105 = call double @llvm.fabs.f64(double %104)
  %106 = fsub double %105, 1.000000e+00
  %107 = call double @llvm.fabs.f64(double %106)
  %108 = fcmp olt double %107, 1.000000e-10
  br i1 %108, label %109, label %115

109:                                              ; preds = %75
  %110 = getelementptr inbounds nuw %struct.PJ_LP, ptr %7, i32 0, i32 0
  store double 0.000000e+00, ptr %110, align 8, !tbaa !80
  %111 = load double, ptr %15, align 8, !tbaa !41
  %112 = fcmp olt double %111, 0.000000e+00
  %113 = select i1 %112, double 0xBFF921FB54442D18, double 0x3FF921FB54442D18
  %114 = getelementptr inbounds nuw %struct.PJ_LP, ptr %7, i32 0, i32 1
  store double %113, ptr %114, align 8, !tbaa !82
  br label %171

115:                                              ; preds = %75
  %116 = load ptr, ptr %8, align 8, !tbaa !43
  %117 = getelementptr inbounds nuw %"struct.(anonymous namespace)::pj_omerc_data", ptr %116, i32 0, i32 2
  %118 = load double, ptr %117, align 8, !tbaa !57
  %119 = load double, ptr %15, align 8, !tbaa !41
  %120 = fadd double 1.000000e+00, %119
  %121 = load double, ptr %15, align 8, !tbaa !41
  %122 = fsub double 1.000000e+00, %121
  %123 = fdiv double %120, %122
  %124 = call double @sqrt(double noundef %123) #16, !tbaa !42
  %125 = fdiv double %118, %124
  %126 = getelementptr inbounds nuw %struct.PJ_LP, ptr %7, i32 0, i32 1
  store double %125, ptr %126, align 8, !tbaa !82
  %127 = load ptr, ptr %6, align 8, !tbaa !3
  %128 = getelementptr inbounds nuw %struct.PJconsts, ptr %127, i32 0, i32 0
  %129 = load ptr, ptr %128, align 8, !tbaa !46
  %130 = getelementptr inbounds nuw %struct.PJ_LP, ptr %7, i32 0, i32 1
  %131 = load double, ptr %130, align 8, !tbaa !82
  %132 = load ptr, ptr %8, align 8, !tbaa !43
  %133 = getelementptr inbounds nuw %"struct.(anonymous namespace)::pj_omerc_data", ptr %132, i32 0, i32 1
  %134 = load double, ptr %133, align 8, !tbaa !54
  %135 = fdiv double 1.000000e+00, %134
  %136 = call double @pow(double noundef %131, double noundef %135) #16, !tbaa !42
  %137 = load ptr, ptr %6, align 8, !tbaa !3
  %138 = getelementptr inbounds nuw %struct.PJconsts, ptr %137, i32 0, i32 26
  %139 = load double, ptr %138, align 8, !tbaa !58
  %140 = call noundef double @_Z7pj_phi2P6pj_ctxdd(ptr noundef %129, double noundef %136, double noundef %139)
  %141 = getelementptr inbounds nuw %struct.PJ_LP, ptr %7, i32 0, i32 1
  store double %140, ptr %141, align 8, !tbaa !82
  %142 = fcmp oeq double %140, 0x7FF0000000000000
  br i1 %142, label %143, label %146

143:                                              ; preds = %115
  %144 = load ptr, ptr %6, align 8, !tbaa !3
  %145 = call i32 @proj_errno_set(ptr noundef %144, i32 noundef 2050)
  call void @llvm.memcpy.p0.p0.i64(ptr align 8 %4, ptr align 8 %7, i64 16, i1 false), !tbaa.struct !79
  store i32 1, ptr %17, align 4
  br label %172

146:                                              ; preds = %115
  %147 = load ptr, ptr %8, align 8, !tbaa !43
  %148 = getelementptr inbounds nuw %"struct.(anonymous namespace)::pj_omerc_data", ptr %147, i32 0, i32 6
  %149 = load double, ptr %148, align 8, !tbaa !64
  %150 = fneg double %149
  %151 = load double, ptr %12, align 8, !tbaa !41
  %152 = load ptr, ptr %8, align 8, !tbaa !43
  %153 = getelementptr inbounds nuw %"struct.(anonymous namespace)::pj_omerc_data", ptr %152, i32 0, i32 8
  %154 = load double, ptr %153, align 8, !tbaa !61
  %155 = load double, ptr %14, align 8, !tbaa !41
  %156 = load ptr, ptr %8, align 8, !tbaa !43
  %157 = getelementptr inbounds nuw %"struct.(anonymous namespace)::pj_omerc_data", ptr %156, i32 0, i32 7
  %158 = load double, ptr %157, align 8, !tbaa !60
  %159 = fmul double %155, %158
  %160 = fneg double %159
  %161 = call double @llvm.fmuladd.f64(double %151, double %154, double %160)
  %162 = load ptr, ptr %8, align 8, !tbaa !43
  %163 = getelementptr inbounds nuw %"struct.(anonymous namespace)::pj_omerc_data", ptr %162, i32 0, i32 5
  %164 = load double, ptr %163, align 8, !tbaa !66
  %165 = load double, ptr %9, align 8, !tbaa !41
  %166 = fmul double %164, %165
  %167 = call double @cos(double noundef %166) #16, !tbaa !42
  %168 = call double @atan2(double noundef %161, double noundef %167) #16, !tbaa !42
  %169 = fmul double %150, %168
  %170 = getelementptr inbounds nuw %struct.PJ_LP, ptr %7, i32 0, i32 0
  store double %169, ptr %170, align 8, !tbaa !80
  br label %171

171:                                              ; preds = %146, %109
  call void @llvm.memcpy.p0.p0.i64(ptr align 8 %4, ptr align 8 %7, i64 16, i1 false), !tbaa.struct !79
  store i32 1, ptr %17, align 4
  br label %172

172:                                              ; preds = %171, %143, %72
  call void @llvm.lifetime.end.p0(i64 8, ptr %15) #16
  call void @llvm.lifetime.end.p0(i64 8, ptr %14) #16
  call void @llvm.lifetime.end.p0(i64 8, ptr %13) #16
  call void @llvm.lifetime.end.p0(i64 8, ptr %12) #16
  call void @llvm.lifetime.end.p0(i64 8, ptr %11) #16
  call void @llvm.lifetime.end.p0(i64 8, ptr %10) #16
  call void @llvm.lifetime.end.p0(i64 8, ptr %9) #16
  call void @llvm.lifetime.end.p0(i64 8, ptr %8) #16
  call void @llvm.lifetime.end.p0(i64 16, ptr %7) #16
  %173 = load { double, double }, ptr %4, align 8
  ret { double, double } %173
}