; Function Attrs: mustprogress uwtable
define internal { double, double } @_ZL15omerc_e_inverse5PJ_XYP8PJconsts(double %0, double %1, ptr noundef %2) #0 {
  %4 = alloca %union.PJ_COORD, align 8
  %5 = getelementptr inbounds nuw i8, ptr %2, i64 88
  %6 = load ptr, ptr %5, align 8, !tbaa !40
  %7 = getelementptr inbounds nuw i8, ptr %6, i64 112
  %8 = load i32, ptr %7, align 8, !tbaa !43
  %.not = icmp eq i32 %8, 0
  br i1 %.not, label %9, label %22

9:                                                ; preds = %3
  %10 = getelementptr inbounds nuw i8, ptr %6, i64 80
  %11 = load double, ptr %10, align 8, !tbaa !68
  %12 = getelementptr inbounds nuw i8, ptr %6, i64 72
  %13 = load double, ptr %12, align 8, !tbaa !67
  %14 = fneg double %13
  %15 = fmul double %1, %14
  %16 = tail call double @llvm.fmuladd.f64(double %0, double %11, double %15)
  %17 = fmul double %0, %13
  %18 = tail call double @llvm.fmuladd.f64(double %1, double %11, double %17)
  %19 = getelementptr inbounds nuw i8, ptr %6, i64 104
  %20 = load double, ptr %19, align 8, !tbaa !73
  %21 = fadd double %20, %18
  br label %22

22:                                               ; preds = %3, %9
  %.048 = phi double [ %16, %9 ], [ %1, %3 ]
  %.0 = phi double [ %21, %9 ], [ %0, %3 ]
  %23 = getelementptr inbounds nuw i8, ptr %6, i64 40
  %24 = load double, ptr %23, align 8, !tbaa !71
  %25 = fneg double %24
  %26 = fmul double %.048, %25
  %27 = tail call double @exp(double noundef %26) #14, !tbaa !47
  %28 = fcmp oeq double %27, 0.000000e+00
  br i1 %28, label %29, label %31

29:                                               ; preds = %22
  %30 = tail call i32 @proj_errno_set(ptr noundef nonnull %2, i32 noundef 2050)
  call void @llvm.lifetime.start.p0(i64 32, ptr nonnull %4) #14
  call void @_Z16proj_coord_errorv(ptr dead_on_unwind nonnull writable sret(%union.PJ_COORD) align 8 %4)
  %.sroa.046.0.copyload = load double, ptr %4, align 8, !tbaa !78
  %.sroa.447.0..sroa_idx = getelementptr inbounds nuw i8, ptr %4, i64 8
  %.sroa.447.0.copyload = load double, ptr %.sroa.447.0..sroa_idx, align 8, !tbaa !78
  call void @llvm.lifetime.end.p0(i64 32, ptr nonnull %4) #14
  br label %86

31:                                               ; preds = %22
  %32 = fdiv double 1.000000e+00, %27
  %33 = fsub double %27, %32
  %34 = fmul double %33, 5.000000e-01
  %35 = fadd double %27, %32
  %36 = fmul double %35, 5.000000e-01
  %37 = fmul double %.0, %24
  %38 = tail call double @sin(double noundef %37) #14, !tbaa !47
  %39 = getelementptr inbounds nuw i8, ptr %6, i64 64
  %40 = load double, ptr %39, align 8, !tbaa !66
  %41 = getelementptr inbounds nuw i8, ptr %6, i64 56
  %42 = load double, ptr %41, align 8, !tbaa !65
  %43 = fmul double %34, %42
  %44 = tail call double @llvm.fmuladd.f64(double %38, double %40, double %43)
  %45 = fdiv double %44, %36
  %46 = tail call double @llvm.fabs.f64(double %45)
  %47 = fadd double %46, -1.000000e+00
  %48 = tail call double @llvm.fabs.f64(double %47)
  %49 = fcmp olt double %48, 1.000000e-10
  br i1 %49, label %50, label %53

50:                                               ; preds = %31
  %51 = fcmp olt double %45, 0.000000e+00
  %52 = select i1 %51, double 0xBFF921FB54442D18, double 0x3FF921FB54442D18
  br label %86

53:                                               ; preds = %31
  %54 = getelementptr inbounds nuw i8, ptr %6, i64 16
  %55 = load double, ptr %54, align 8, !tbaa !52
  %56 = fadd double %45, 1.000000e+00
  %57 = fsub double 1.000000e+00, %45
  %58 = fdiv double %56, %57
  %59 = tail call double @sqrt(double noundef %58) #14, !tbaa !47
  %60 = fdiv double %55, %59
  %61 = load ptr, ptr %2, align 8, !tbaa !41
  %62 = getelementptr inbounds nuw i8, ptr %6, i64 8
  %63 = load double, ptr %62, align 8, !tbaa !49
  %64 = fdiv double 1.000000e+00, %63
  %65 = tail call double @pow(double noundef %60, double noundef %64) #14, !tbaa !47
  %66 = getelementptr inbounds nuw i8, ptr %2, i64 208
  %67 = load double, ptr %66, align 8, !tbaa !53
  %68 = tail call noundef double @_Z7pj_phi2P6pj_ctxdd(ptr noundef %61, double noundef %65, double noundef %67)
  %69 = fcmp oeq double %68, 0x7FF0000000000000
  br i1 %69, label %70, label %72

70:                                               ; preds = %53
  %71 = tail call i32 @proj_errno_set(ptr noundef nonnull %2, i32 noundef 2050)
  br label %86

72:                                               ; preds = %53
  %73 = getelementptr inbounds nuw i8, ptr %6, i64 48
  %74 = load double, ptr %73, align 8, !tbaa !69
  %75 = fneg double %74
  %76 = load double, ptr %39, align 8, !tbaa !66
  %77 = load double, ptr %41, align 8, !tbaa !65
  %78 = fneg double %77
  %79 = fmul double %38, %78
  %80 = tail call double @llvm.fmuladd.f64(double %34, double %76, double %79)
  %81 = load double, ptr %23, align 8, !tbaa !71
  %82 = fmul double %.0, %81
  %83 = tail call double @cos(double noundef %82) #14, !tbaa !47
  %84 = tail call double @atan2(double noundef %80, double noundef %83) #14, !tbaa !47
  %85 = fmul double %84, %75
  br label %86

86:                                               ; preds = %50, %72, %70, %29
  %.sroa.046.0 = phi double [ %.sroa.046.0.copyload, %29 ], [ 0.000000e+00, %70 ], [ 0.000000e+00, %50 ], [ %85, %72 ]
  %.sroa.447.0 = phi double [ %.sroa.447.0.copyload, %29 ], [ 0x7FF0000000000000, %70 ], [ %52, %50 ], [ %68, %72 ]
  %.fca.0.insert = insertvalue { double, double } poison, double %.sroa.046.0, 0
  %.fca.1.insert = insertvalue { double, double } %.fca.0.insert, double %.sroa.447.0, 1
  ret { double, double } %.fca.1.insert
}